target datalayout = "e-m:e-p270:32:32-p271:32:32-p272:64:64-i64:64-i128:128-f80:128-n8:16:32:64-S128"
target triple = "x86_64-pc-linux-gnu"

%struct._packet_info = type { ptr, ptr, i32, i32, %struct.nstime_t, %struct.nstime_t, %struct.nstime_t, i8, ptr, ptr, ptr, ptr, %struct._address, %struct._address, %struct._address, %struct._address, %struct._address, %struct._address, i32, ptr, i8, [3 x i8], %struct.anon, i32, i32, i32, i32, ptr, i8, ptr, ptr, i16, i16, i32, i32, i16, i32, i32, ptr, ptr, ptr, i8, i8, i16, i16, i16, i32, i16, i16, ptr, ptr, ptr, ptr, ptr, i32, i32 }
%struct.nstime_t = type { i64, i32 }
%struct._address = type { i32, i32, ptr, ptr }
%struct.anon = type { i8, [3 x i8] }
%struct.gadu_gadu_conv_data = type { i32 }
%struct._proto_node = type { ptr, ptr, ptr, ptr, ptr, ptr, ptr }
%struct.field_info = type { ptr, i32, i32, i32, i32, i32, i32, ptr, ptr, ptr, i32, i32 }

@hf_gadu_gadu_login_uin = internal global i32 0, align 4
@hf_gadu_gadu_login_status = internal global i32 0, align 4
@hf_gadu_gadu_login_protocol = internal global i32 0, align 4
@hf_gadu_gadu_login_version = internal global i32 0, align 4
@hf_gadu_gadu_login_local_ip = internal global i32 0, align 4
@hf_gadu_gadu_login_local_port = internal global i32 0, align 4
@hf_gadu_gadu_data = internal global i32 0, align 4
@proto_gadu_gadu = internal global i32 0, align 4
@.str.254 = private unnamed_addr constant [15 x i8] c"Unknown (0x%x)\00", align 1
@.str.281 = private unnamed_addr constant [20 x i8] c"Login request (7.0)\00", align 1

; Function Attrs: inlinehint nounwind null_pointer_is_valid sspstrong uwtable
define internal void @proto_item_set_generated(ptr noundef %0) #3 {
  %2 = alloca ptr, align 8
  store ptr %0, ptr %2, align 8
  %3 = load ptr, ptr %2, align 8
  %4 = icmp ne ptr %3, null
  br i1 %4, label %5, label %24

5:                                                ; preds = %1
  br label %6

6:                                                ; preds = %5
  %7 = load ptr, ptr %2, align 8
  %8 = getelementptr inbounds nuw %struct._proto_node, ptr %7, i32 0, i32 5
  %9 = load ptr, ptr %8, align 8
  %10 = icmp ne ptr %9, null
  br i1 %10, label %11, label %22

11:                                               ; preds = %6
  %12 = load ptr, ptr %2, align 8
  %13 = getelementptr inbounds nuw %struct._proto_node, ptr %12, i32 0, i32 5
  %14 = load ptr, ptr %13, align 8
  %15 = getelementptr inbounds nuw %struct.field_info, ptr %14, i32 0, i32 6
  %16 = load i32, ptr %15, align 4
  %17 = or i32 %16, 2
  %18 = load ptr, ptr %2, align 8
  %19 = getelementptr inbounds nuw %struct._proto_node, ptr %18, i32 0, i32 5
  %20 = load ptr, ptr %19, align 8
  %21 = getelementptr inbounds nuw %struct.field_info, ptr %20, i32 0, i32 6
  store i32 %17, ptr %21, align 4
  br label %22

22:                                               ; preds = %11, %6
  br label %23

23:                                               ; preds = %22
  br label %24

24:                                               ; preds = %23, %1
  ret void
}

; Function Attrs: null_pointer_is_valid sspstrong uwtable
define internal i32 @dissect_gadu_gadu_login_protocol(ptr noundef %0, ptr noundef %1, i32 noundef %2) #0 {
  %4 = alloca ptr, align 8
  %5 = alloca ptr, align 8
  %6 = alloca i32, align 4
  %7 = alloca ptr, align 8
  %8 = alloca i32, align 4
  store ptr %0, ptr %4, align 8
  store ptr %1, ptr %5, align 8
  store i32 %2, ptr %6, align 4
  call void @llvm.lifetime.start.p0(i64 8, ptr %7) #6
  call void @llvm.lifetime.start.p0(i64 4, ptr %8) #6
  %9 = load ptr, ptr %4, align 8
  %10 = load i32, ptr %6, align 4
  %11 = call i32 @tvb_get_letohl(ptr noundef %9, i32 noundef %10)
  %12 = and i32 %11, 255
  store i32 %12, ptr %8, align 4
  %13 = load ptr, ptr %5, align 8
  %14 = load i32, ptr @hf_gadu_gadu_login_protocol, align 4
  %15 = load ptr, ptr %4, align 8
  %16 = load i32, ptr %6, align 4
  %17 = call ptr @proto_tree_add_item(ptr noundef %13, i32 noundef %14, ptr noundef %15, i32 noundef %16, i32 noundef 4, i32 noundef -2147483648)
  %18 = load ptr, ptr %5, align 8
  %19 = load i32, ptr @hf_gadu_gadu_login_version, align 4
  %20 = load ptr, ptr %4, align 8
  %21 = load i32, ptr %6, align 4
  %22 = load i32, ptr %8, align 4
  %23 = call ptr @val_to_str(i32 noundef %22, ptr noundef @gadu_gadu_version_vals, ptr noundef @.str.254)
  %24 = call ptr @proto_tree_add_string(ptr noundef %18, i32 noundef %19, ptr noundef %20, i32 noundef %21, i32 noundef 4, ptr noundef %23)
  store ptr %24, ptr %7, align 8
  %25 = load ptr, ptr %7, align 8
  call void @proto_item_set_generated(ptr noundef %25)
  %26 = load i32, ptr %6, align 4
  %27 = add i32 %26, 4
  store i32 %27, ptr %6, align 4
  %28 = load i32, ptr %6, align 4
  call void @llvm.lifetime.end.p0(i64 4, ptr %8) #6
  call void @llvm.lifetime.end.p0(i64 8, ptr %7) #6
  ret i32 %28
}

; Function Attrs: null_pointer_is_valid sspstrong uwtable
define internal ptr @gadu_gadu_create_conversation(ptr noundef %0, i32 noundef %1) #0 {
  %3 = alloca ptr, align 8
  %4 = alloca i32, align 4
  %5 = alloca ptr, align 8
  %6 = alloca ptr, align 8
  store ptr %0, ptr %3, align 8
  store i32 %1, ptr %4, align 4
  call void @llvm.lifetime.start.p0(i64 8, ptr %5) #6
  call void @llvm.lifetime.start.p0(i64 8, ptr %6) #6
  %7 = load ptr, ptr %3, align 8
  %8 = call ptr @find_or_create_conversation(ptr noundef %7)
  store ptr %8, ptr %5, align 8
  %9 = load ptr, ptr %5, align 8
  %10 = load i32, ptr @proto_gadu_gadu, align 4
  %11 = call ptr @conversation_get_proto_data(ptr noundef %9, i32 noundef %10)
  store ptr %11, ptr %6, align 8
  %12 = load ptr, ptr %6, align 8
  %13 = icmp ne ptr %12, null
  br i1 %13, label %23, label %14

14:                                               ; preds = %2
  %15 = call ptr @wmem_file_scope()
  %16 = call noalias ptr @wmem_alloc(ptr noundef %15, i64 noundef 4) #7
  store ptr %16, ptr %6, align 8
  %17 = load i32, ptr %4, align 4
  %18 = load ptr, ptr %6, align 8
  %19 = getelementptr inbounds nuw %struct.gadu_gadu_conv_data, ptr %18, i32 0, i32 0
  store i32 %17, ptr %19, align 4
  %20 = load ptr, ptr %5, align 8
  %21 = load i32, ptr @proto_gadu_gadu, align 4
  %22 = load ptr, ptr %6, align 8
  call void @conversation_add_proto_data(ptr noundef %20, i32 noundef %21, ptr noundef %22)
  br label %23

23:                                               ; preds = %14, %2
  %24 = load ptr, ptr %6, align 8
  call void @llvm.lifetime.end.p0(i64 8, ptr %6) #6
  call void @llvm.lifetime.end.p0(i64 8, ptr %5) #6
  ret ptr %24
}

; Function Attrs: null_pointer_is_valid sspstrong uwtable
define internal i32 @dissect_gadu_gadu_login70(ptr noundef %0, ptr noundef %1, ptr noundef %2, i32 noundef %3) #0 {
  %5 = alloca ptr, align 8
  %6 = alloca ptr, align 8
  %7 = alloca ptr, align 8
  %8 = alloca i32, align 4
  %9 = alloca i32, align 4
  store ptr %0, ptr %5, align 8
  store ptr %1, ptr %6, align 8
  store ptr %2, ptr %7, align 8
  store i32 %3, ptr %8, align 4
  call void @llvm.lifetime.start.p0(i64 4, ptr %9) #6
  %10 = load ptr, ptr %6, align 8
  %11 = getelementptr inbounds nuw %struct._packet_info, ptr %10, i32 0, i32 1
  %12 = load ptr, ptr %11, align 8
  call void @col_set_str(ptr noundef %12, i32 noundef 25, ptr noundef @.str.281)
  %13 = load ptr, ptr %5, align 8
  %14 = load i32, ptr %8, align 4
  %15 = call i32 @tvb_get_letohl(ptr noundef %13, i32 noundef %14)
  %16 = and i32 %15, -1140850689
  store i32 %16, ptr %9, align 4
  %17 = load ptr, ptr %6, align 8
  %18 = load i32, ptr %9, align 4
  %19 = call ptr @gadu_gadu_create_conversation(ptr noundef %17, i32 noundef %18)
  %20 = load ptr, ptr %7, align 8
  %21 = load i32, ptr @hf_gadu_gadu_login_uin, align 4
  %22 = load ptr, ptr %5, align 8
  %23 = load i32, ptr %8, align 4
  %24 = load i32, ptr %9, align 4
  %25 = call ptr @proto_tree_add_uint(ptr noundef %20, i32 noundef %21, ptr noundef %22, i32 noundef %23, i32 noundef 4, i32 noundef %24)
  %26 = load i32, ptr %8, align 4
  %27 = add i32 %26, 4
  store i32 %27, ptr %8, align 4
  %28 = load ptr, ptr %5, align 8
  %29 = load ptr, ptr %7, align 8
  %30 = load i32, ptr %8, align 4
  %31 = call i32 @dissect_gadu_gadu_login_hash(ptr noundef %28, ptr noundef %29, i32 noundef %30)
  store i32 %31, ptr %8, align 4
  %32 = load ptr, ptr %7, align 8
  %33 = load i32, ptr @hf_gadu_gadu_login_status, align 4
  %34 = load ptr, ptr %5, align 8
  %35 = load i32, ptr %8, align 4
  %36 = call ptr @proto_tree_add_item(ptr noundef %32, i32 noundef %33, ptr noundef %34, i32 noundef %35, i32 noundef 4, i32 noundef -2147483648)
  %37 = load i32, ptr %8, align 4
  %38 = add i32 %37, 4
  store i32 %38, ptr %8, align 4
  %39 = load ptr, ptr %5, align 8
  %40 = load ptr, ptr %7, align 8
  %41 = load i32, ptr %8, align 4
  %42 = call i32 @dissect_gadu_gadu_login_protocol(ptr noundef %39, ptr noundef %40, i32 noundef %41)
  store i32 %42, ptr %8, align 4
  %43 = load ptr, ptr %7, align 8
  %44 = load i32, ptr @hf_gadu_gadu_data, align 4
  %45 = load ptr, ptr %5, align 8
  %46 = load i32, ptr %8, align 4
  %47 = call ptr @proto_tree_add_item(ptr noundef %43, i32 noundef %44, ptr noundef %45, i32 noundef %46, i32 noundef 1, i32 noundef 0)
  %48 = load i32, ptr %8, align 4
  %49 = add i32 %48, 1
  store i32 %49, ptr %8, align 4
  %50 = load ptr, ptr %7, align 8
  %51 = load i32, ptr @hf_gadu_gadu_login_local_ip, align 4
  %52 = load ptr, ptr %5, align 8
  %53 = load i32, ptr %8, align 4
  %54 = call ptr @proto_tree_add_item(ptr noundef %50, i32 noundef %51, ptr noundef %52, i32 noundef %53, i32 noundef 4, i32 noundef 0)
  %55 = load i32, ptr %8, align 4
  %56 = add i32 %55, 4
  store i32 %56, ptr %8, align 4
  %57 = load ptr, ptr %7, align 8
  %58 = load i32, ptr @hf_gadu_gadu_login_local_port, align 4
  %59 = load ptr, ptr %5, align 8
  %60 = load i32, ptr %8, align 4
  %61 = call ptr @proto_tree_add_item(ptr noundef %57, i32 noundef %58, ptr noundef %59, i32 noundef %60, i32 noundef 2, i32 noundef -2147483648)
  %62 = load i32, ptr %8, align 4
  %63 = add i32 %62, 2
  store i32 %63, ptr %8, align 4
  %64 = load i32, ptr %8, align 4
  call void @llvm.lifetime.end.p0(i64 4, ptr %9) #6
  ret i32 %64
}