; Function Attrs: null_pointer_is_valid sspstrong uwtable
define internal fastcc range(i32 92, 95) i32 @dissect_gadu_gadu_login70(ptr noundef %0, ptr noundef %1, ptr noundef %2) unnamed_addr #0 {
  %4 = getelementptr inbounds nuw i8, ptr %1, i64 8
  %5 = load ptr, ptr %4, align 8
  tail call void @col_set_str(ptr noundef %5, i32 noundef 25, ptr noundef nonnull @.str.281)
  %6 = tail call i32 @tvb_get_letohl(ptr noundef %0, i32 noundef 8)
  %7 = and i32 %6, -1140850689
  %8 = tail call ptr @find_or_create_conversation(ptr noundef %1)
  %9 = load i32, ptr @proto_gadu_gadu, align 4
  %10 = tail call ptr @conversation_get_proto_data(ptr noundef %8, i32 noundef %9)
  %.not.i = icmp eq ptr %10, null
  br i1 %.not.i, label %11, label %gadu_gadu_create_conversation.exit

11:                                               ; preds = %3
  %12 = tail call ptr @wmem_file_scope()
  %13 = tail call noalias dereferenceable_or_null(4) ptr @wmem_alloc(ptr noundef %12, i64 noundef 4) #5
  store i32 %7, ptr %13, align 4
  %14 = load i32, ptr @proto_gadu_gadu, align 4
  tail call void @conversation_add_proto_data(ptr noundef %8, i32 noundef %14, ptr noundef %13)
  br label %gadu_gadu_create_conversation.exit

gadu_gadu_create_conversation.exit:               ; preds = %3, %11
  %15 = load i32, ptr @hf_gadu_gadu_login_uin, align 4
  %16 = tail call ptr @proto_tree_add_uint(ptr noundef %2, i32 noundef %15, ptr noundef %0, i32 noundef 8, i32 noundef 4, i32 noundef %7)
  %17 = tail call fastcc i32 @dissect_gadu_gadu_login_hash(ptr noundef %0, ptr noundef %2, i32 noundef 12)
  %18 = load i32, ptr @hf_gadu_gadu_login_status, align 4
  %19 = tail call ptr @proto_tree_add_item(ptr noundef %2, i32 noundef %18, ptr noundef %0, i32 noundef %17, i32 noundef 4, i32 noundef -2147483648)
  %20 = add nuw nsw i32 %17, 4
  %21 = tail call i32 @tvb_get_letohl(ptr noundef %0, i32 noundef range(i32 20, 84) %20)
  %22 = and i32 %21, 255
  %23 = load i32, ptr @hf_gadu_gadu_login_protocol, align 4
  %24 = tail call ptr @proto_tree_add_item(ptr noundef %2, i32 noundef %23, ptr noundef %0, i32 noundef range(i32 20, 84) %20, i32 noundef 4, i32 noundef -2147483648)
  %25 = load i32, ptr @hf_gadu_gadu_login_version, align 4
  %26 = tail call ptr @val_to_str(i32 noundef %22, ptr noundef nonnull @gadu_gadu_version_vals, ptr noundef nonnull @.str.254)
  %27 = tail call ptr @proto_tree_add_string(ptr noundef %2, i32 noundef %25, ptr noundef %0, i32 noundef range(i32 20, 84) %20, i32 noundef 4, ptr noundef %26)
  %.not.i.i = icmp eq ptr %27, null
  br i1 %.not.i.i, label %dissect_gadu_gadu_login_protocol.exit, label %28

28:                                               ; preds = %gadu_gadu_create_conversation.exit
  %29 = getelementptr inbounds nuw i8, ptr %27, i64 40
  %30 = load ptr, ptr %29, align 8
  %.not5.i.i = icmp eq ptr %30, null
  br i1 %.not5.i.i, label %dissect_gadu_gadu_login_protocol.exit, label %31

31:                                               ; preds = %28
  %32 = getelementptr inbounds nuw i8, ptr %30, i64 28
  %33 = load i32, ptr %32, align 4
  %34 = or i32 %33, 2
  store i32 %34, ptr %32, align 4
  br label %dissect_gadu_gadu_login_protocol.exit

dissect_gadu_gadu_login_protocol.exit:            ; preds = %gadu_gadu_create_conversation.exit, %28, %31
  %35 = add nuw nsw i32 %17, 8
  %36 = load i32, ptr @hf_gadu_gadu_data, align 4
  %37 = tail call ptr @proto_tree_add_item(ptr noundef %2, i32 noundef %36, ptr noundef %0, i32 noundef %35, i32 noundef 1, i32 noundef 0)
  %38 = add nuw nsw i32 %17, 9
  %39 = load i32, ptr @hf_gadu_gadu_login_local_ip, align 4
  %40 = tail call ptr @proto_tree_add_item(ptr noundef %2, i32 noundef %39, ptr noundef %0, i32 noundef %38, i32 noundef 4, i32 noundef 0)
  %41 = add nuw nsw i32 %17, 13
  %42 = load i32, ptr @hf_gadu_gadu_login_local_port, align 4
  %43 = tail call ptr @proto_tree_add_item(ptr noundef %2, i32 noundef %42, ptr noundef %0, i32 noundef %41, i32 noundef 2, i32 noundef -2147483648)
  %44 = add nuw nsw i32 %17, 15
  ret i32 %44
}